; Function Attrs: mustprogress uwtable
define void @_ZN5faiss24ProductAdditiveQuantizerC2Ev(ptr noundef nonnull align 8 dereferenceable(392) %0) unnamed_addr #0 align 2 personality ptr @__gxx_personality_v0 {
.noexc:
  %1 = alloca %"class.std::vector.15", align 8
  call void @llvm.lifetime.start.p0(i64 24, ptr nonnull %1) #18
  call void @llvm.memset.p0.i64(ptr noundef nonnull align 8 dereferenceable(24) %1, i8 0, i64 24, i1 false)
  tail call void @_ZN5faiss17AdditiveQuantizerC2Ev(ptr noundef nonnull align 8 dereferenceable(392) %0)
  store ptr getelementptr inbounds nuw inrange(-16, 64) (i8, ptr @_ZTVN5faiss24ProductAdditiveQuantizerE, i64 16), ptr %0, align 8, !tbaa !61
  %2 = getelementptr inbounds nuw i8, ptr %0, i64 368
  tail call void @llvm.memset.p0.i64(ptr noundef nonnull align 8 dereferenceable(24) %2, i8 0, i64 24, i1 false)
  invoke void @_ZN5faiss24ProductAdditiveQuantizer4initEmRKSt6vectorIPNS_17AdditiveQuantizerESaIS3_EENS2_13Search_type_tE(ptr noundef nonnull align 8 dereferenceable(392) %0, i64 noundef 0, ptr noundef nonnull readonly align 8 dereferenceable(24) %1, i32 noundef 0)
          to label %_ZNSt6vectorIPN5faiss17AdditiveQuantizerESaIS2_EED2Ev.exit unwind label %3

3:                                                ; preds = %.noexc
  %4 = landingpad { ptr, i32 }
          cleanup
  %5 = load ptr, ptr %2, align 8, !tbaa !54
  %.not.i.i.i.i = icmp eq ptr %5, null
  br i1 %.not.i.i.i.i, label %_ZNSt6vectorIPN5faiss17AdditiveQuantizerESaIS2_EED2Ev.exit.i, label %6

6:                                                ; preds = %3
  %7 = getelementptr inbounds nuw i8, ptr %0, i64 384
  %8 = load ptr, ptr %7, align 8, !tbaa !78
  %9 = ptrtoint ptr %8 to i64
  %10 = ptrtoint ptr %5 to i64
  %11 = sub i64 %9, %10
  tail call void @_ZdlPvm(ptr noundef nonnull %5, i64 noundef %11) #23
  br label %_ZNSt6vectorIPN5faiss17AdditiveQuantizerESaIS2_EED2Ev.exit.i

_ZNSt6vectorIPN5faiss17AdditiveQuantizerESaIS2_EED2Ev.exit.i: ; preds = %6, %3
  tail call void @_ZN5faiss17AdditiveQuantizerD2Ev(ptr noundef nonnull align 8 dereferenceable(392) %0) #18
  call void @llvm.lifetime.end.p0(i64 24, ptr nonnull %1) #18
  resume { ptr, i32 } %4

_ZNSt6vectorIPN5faiss17AdditiveQuantizerESaIS2_EED2Ev.exit: ; preds = %.noexc
  call void @llvm.lifetime.end.p0(i64 24, ptr nonnull %1) #18
  ret void
}